target datalayout = "e-m:e-p270:32:32-p271:32:32-p272:64:64-i64:64-i128:128-f80:128-n8:16:32:64-S128"
target triple = "x86_64-pc-linux-gnu"

%struct.CopyToStateData = type { i32, ptr, ptr, i32, i8, i8, ptr, ptr, ptr, ptr, i8, ptr, %struct.CopyFormatOptions, ptr, ptr, ptr, ptr, i64 }
%struct.CopyFormatOptions = type { i32, i8, i8, i8, i32, ptr, i32, ptr, ptr, i32, ptr, ptr, ptr, ptr, i8, ptr, ptr, i8, ptr, ptr, i8, ptr, i8, i32, i32, i64, ptr }

@.str.2 = private unnamed_addr constant [9 x i8] c"copyto.c\00", align 1
@.str.28 = private unnamed_addr constant [45 x i8] c"could not close pipe to external command: %m\00", align 1
@__func__.ClosePipeToProgram = private unnamed_addr constant [19 x i8] c"ClosePipeToProgram\00", align 1
@.str.29 = private unnamed_addr constant [20 x i8] c"program \22%s\22 failed\00", align 1
@.str.30 = private unnamed_addr constant [3 x i8] c"%s\00", align 1

; Function Attrs: nounwind uwtable
define internal void @ClosePipeToProgram(ptr noundef %0) #0 {
  %2 = alloca ptr, align 8
  %3 = alloca i32, align 4
  store ptr %0, ptr %2, align 8
  call void @llvm.lifetime.start.p0(i64 4, ptr %3) #14
  %4 = load ptr, ptr %2, align 8
  %5 = getelementptr inbounds nuw %struct.CopyToStateData, ptr %4, i32 0, i32 1
  %6 = load ptr, ptr %5, align 8
  %7 = call i32 @ClosePipeStream(ptr noundef %6)
  store i32 %7, ptr %3, align 4
  %8 = load i32, ptr %3, align 4
  %9 = icmp eq i32 %8, -1
  br i1 %9, label %10, label %22

10:                                               ; preds = %1
  br label %11

11:                                               ; preds = %10
  br i1 true, label %12, label %14

12:                                               ; preds = %11
  %13 = call zeroext i1 @errstart_cold(i32 noundef 21, ptr noundef null) #15
  br i1 %13, label %16, label %19

14:                                               ; preds = %11
  %15 = call zeroext i1 @errstart(i32 noundef 21, ptr noundef null)
  br i1 %15, label %16, label %19

16:                                               ; preds = %14, %12
  %17 = call i32 @errcode_for_file_access()
  %18 = call i32 (ptr, ...) @errmsg(ptr noundef @.str.28)
  call void @errfinish(ptr noundef @.str.2, i32 noundef 299, ptr noundef @__func__.ClosePipeToProgram)
  br label %19

19:                                               ; preds = %16, %14, %12
  unreachable

20:                                               ; No predecessors!
  br label %21

21:                                               ; preds = %20
  br label %44

22:                                               ; preds = %1
  %23 = load i32, ptr %3, align 4
  %24 = icmp ne i32 %23, 0
  br i1 %24, label %25, label %43

25:                                               ; preds = %22
  br label %26

26:                                               ; preds = %25
  br i1 true, label %27, label %29

27:                                               ; preds = %26
  %28 = call zeroext i1 @errstart_cold(i32 noundef 21, ptr noundef null) #15
  br i1 %28, label %31, label %40

29:                                               ; preds = %26
  %30 = call zeroext i1 @errstart(i32 noundef 21, ptr noundef null)
  br i1 %30, label %31, label %40

31:                                               ; preds = %29, %27
  %32 = call i32 @errcode(i32 noundef 515)
  %33 = load ptr, ptr %2, align 8
  %34 = getelementptr inbounds nuw %struct.CopyToStateData, ptr %33, i32 0, i32 9
  %35 = load ptr, ptr %34, align 8
  %36 = call i32 (ptr, ...) @errmsg(ptr noundef @.str.29, ptr noundef %35)
  %37 = load i32, ptr %3, align 4
  %38 = call ptr @wait_result_to_str(i32 noundef %37)
  %39 = call i32 (ptr, ...) @errdetail_internal(ptr noundef @.str.30, ptr noundef %38)
  call void @errfinish(ptr noundef @.str.2, i32 noundef 306, ptr noundef @__func__.ClosePipeToProgram)
  br label %40

40:                                               ; preds = %31, %29, %27
  unreachable

41:                                               ; No predecessors!
  br label %42

42:                                               ; preds = %41
  br label %43

43:                                               ; preds = %42, %22
  br label %44

44:                                               ; preds = %43, %21
  call void @llvm.lifetime.end.p0(i64 4, ptr %3) #14
  ret void
}