; Function Attrs: nounwind uwtable
define internal fastcc void @ClosePipeToProgram(ptr noundef readonly captures(none) %0) unnamed_addr #0 {
  %2 = getelementptr inbounds nuw i8, ptr %0, i64 8
  %3 = load ptr, ptr %2, align 8
  %4 = tail call i32 @ClosePipeStream(ptr noundef %3) #17
  switch i32 %4, label %9 [
    i32 -1, label %5
    i32 0, label %17
  ]

5:                                                ; preds = %1
  %6 = tail call zeroext i1 @errstart_cold(i32 noundef 21, ptr noundef null) #18
  tail call void @llvm.assume(i1 %6)
  %7 = tail call i32 @errcode_for_file_access() #17
  %8 = tail call i32 (ptr, ...) @errmsg(ptr noundef nonnull @.str.28) #17
  tail call void @errfinish(ptr noundef nonnull @.str.2, i32 noundef 299, ptr noundef nonnull @__func__.ClosePipeToProgram) #17
  unreachable

9:                                                ; preds = %1
  %10 = tail call zeroext i1 @errstart_cold(i32 noundef 21, ptr noundef null) #18
  tail call void @llvm.assume(i1 %10)
  %11 = tail call i32 @errcode(i32 noundef 515) #17
  %12 = getelementptr inbounds nuw i8, ptr %0, i64 56
  %13 = load ptr, ptr %12, align 8
  %14 = tail call i32 (ptr, ...) @errmsg(ptr noundef nonnull @.str.29, ptr noundef %13) #17
  %15 = tail call ptr @wait_result_to_str(i32 noundef %4) #17
  %16 = tail call i32 (ptr, ...) @errdetail_internal(ptr noundef nonnull @.str.30, ptr noundef %15) #17
  tail call void @errfinish(ptr noundef nonnull @.str.2, i32 noundef 306, ptr noundef nonnull @__func__.ClosePipeToProgram) #17
  unreachable

17:                                               ; preds = %1
  ret void
}